target datalayout = "e-m:e-p270:32:32-p271:32:32-p272:64:64-i64:64-i128:128-f80:128-n8:16:32:64-S128"
target triple = "x86_64-pc-linux-gnu"

%struct.RelationData = type { %struct.RelFileLocator, ptr, i32, i32, i8, i8, i8, i8, i8, i32, i32, i32, i32, ptr, ptr, i32, %struct.LockInfoData, ptr, ptr, ptr, ptr, ptr, i8, ptr, ptr, ptr, ptr, ptr, ptr, i32, ptr, i8, ptr, ptr, i32, i8, i32, ptr, i8, ptr, ptr, ptr, ptr, ptr, ptr, ptr, i32, ptr, ptr, ptr, ptr, ptr, ptr, ptr, ptr, ptr, ptr, ptr, ptr, ptr, ptr, ptr, ptr, ptr, ptr, ptr, i32, i8, ptr }
%struct.RelFileLocator = type { i32, i32, i32 }
%struct.LockInfoData = type { %struct.LockRelId }
%struct.LockRelId = type { i32, i32 }
%struct.TupleDescData = type { i32, i32, i32, i32, ptr, [0 x %struct.CompactAttribute] }
%struct.CompactAttribute = type { i32, i16, i8, i8, i8, i8, i8, i8, i8 }
%struct.FormData_pg_attribute = type { i32, %struct.nameData, i32, i16, i16, i32, i16, i8, i8, i8, i8, i8, i8, i8, i8, i8, i8, i8, i16, i32 }
%struct.nameData = type { [64 x i8] }
%struct.ForEachState = type { ptr, i32 }
%struct.List = type { i32, i32, i32, ptr, [0 x %union.ListCell] }
%union.ListCell = type { ptr }
%struct.Node = type { i32 }
%struct.TargetEntry = type { %struct.Expr, ptr, i16, ptr, i32, i32, i16, i8 }
%struct.Expr = type { i32 }
%struct.Const = type { %struct.Expr, i32, i32, i32, i32, i64, i8, i8, i32 }

@.str.1 = private unnamed_addr constant [18 x i8] c"nodeModifyTable.c\00", align 1
@.str.35 = private unnamed_addr constant [57 x i8] c"table row type and query-specified row type do not match\00", align 1
@.str.36 = private unnamed_addr constant [28 x i8] c"Query has too many columns.\00", align 1
@__func__.ExecCheckPlanOutput = private unnamed_addr constant [20 x i8] c"ExecCheckPlanOutput\00", align 1
@.str.37 = private unnamed_addr constant [64 x i8] c"Table has type %s at ordinal position %d, but query expects %s.\00", align 1
@.str.38 = private unnamed_addr constant [68 x i8] c"Query provides a value for a dropped column at ordinal position %d.\00", align 1
@.str.39 = private unnamed_addr constant [27 x i8] c"Query has too few columns.\00", align 1

; Function Attrs: inlinehint nounwind uwtable
define internal ptr @TupleDescAttr(ptr noundef %0, i32 noundef %1) #3 {
  %3 = alloca ptr, align 8
  %4 = alloca i32, align 4
  %5 = alloca ptr, align 8
  store ptr %0, ptr %3, align 8
  store i32 %1, ptr %4, align 4
  call void @llvm.lifetime.start.p0(i64 8, ptr %5) #8
  %6 = load ptr, ptr %3, align 8
  %7 = load ptr, ptr %3, align 8
  %8 = getelementptr inbounds nuw %struct.TupleDescData, ptr %7, i32 0, i32 0
  %9 = load i32, ptr %8, align 8
  %10 = sext i32 %9 to i64
  %11 = mul i64 %10, 16
  %12 = add i64 24, %11
  %13 = getelementptr inbounds nuw i8, ptr %6, i64 %12
  store ptr %13, ptr %5, align 8
  %14 = load ptr, ptr %5, align 8
  %15 = load i32, ptr %4, align 4
  %16 = sext i32 %15 to i64
  %17 = getelementptr inbounds %struct.FormData_pg_attribute, ptr %14, i64 %16
  call void @llvm.lifetime.end.p0(i64 8, ptr %5) #8
  ret ptr %17
}

; Function Attrs: nounwind uwtable
define internal void @ExecCheckPlanOutput(ptr noundef %0, ptr noundef %1) #0 {
  %3 = alloca ptr, align 8
  %4 = alloca ptr, align 8
  %5 = alloca ptr, align 8
  %6 = alloca i32, align 4
  %7 = alloca ptr, align 8
  %8 = alloca %struct.ForEachState, align 8
  %9 = alloca ptr, align 8
  %10 = alloca ptr, align 8
  store ptr %0, ptr %3, align 8
  store ptr %1, ptr %4, align 8
  call void @llvm.lifetime.start.p0(i64 8, ptr %5) #8
  %11 = load ptr, ptr %3, align 8
  %12 = getelementptr inbounds nuw %struct.RelationData, ptr %11, i32 0, i32 14
  %13 = load ptr, ptr %12, align 8
  store ptr %13, ptr %5, align 8
  call void @llvm.lifetime.start.p0(i64 4, ptr %6) #8
  store i32 0, ptr %6, align 4
  call void @llvm.lifetime.start.p0(i64 8, ptr %7) #8
  call void @llvm.lifetime.start.p0(i64 16, ptr %8) #8
  %14 = getelementptr inbounds nuw %struct.ForEachState, ptr %8, i32 0, i32 0
  %15 = load ptr, ptr %4, align 8
  store ptr %15, ptr %14, align 8
  %16 = getelementptr inbounds nuw %struct.ForEachState, ptr %8, i32 0, i32 1
  store i32 0, ptr %16, align 8
  %17 = getelementptr i8, ptr %8, i64 12
  call void @llvm.memset.p0.i64(ptr align 4 %17, i8 0, i64 4, i1 false)
  br label %18

18:                                               ; preds = %138, %2
  %19 = getelementptr inbounds nuw %struct.ForEachState, ptr %8, i32 0, i32 0
  %20 = load ptr, ptr %19, align 8
  %21 = icmp ne ptr %20, null
  br i1 %21, label %22, label %39

22:                                               ; preds = %18
  %23 = getelementptr inbounds nuw %struct.ForEachState, ptr %8, i32 0, i32 1
  %24 = load i32, ptr %23, align 8
  %25 = getelementptr inbounds nuw %struct.ForEachState, ptr %8, i32 0, i32 0
  %26 = load ptr, ptr %25, align 8
  %27 = getelementptr inbounds nuw %struct.List, ptr %26, i32 0, i32 1
  %28 = load i32, ptr %27, align 4
  %29 = icmp slt i32 %24, %28
  br i1 %29, label %30, label %39

30:                                               ; preds = %22
  %31 = getelementptr inbounds nuw %struct.ForEachState, ptr %8, i32 0, i32 0
  %32 = load ptr, ptr %31, align 8
  %33 = getelementptr inbounds nuw %struct.List, ptr %32, i32 0, i32 3
  %34 = load ptr, ptr %33, align 8
  %35 = getelementptr inbounds nuw %struct.ForEachState, ptr %8, i32 0, i32 1
  %36 = load i32, ptr %35, align 8
  %37 = sext i32 %36 to i64
  %38 = getelementptr inbounds %union.ListCell, ptr %34, i64 %37
  store ptr %38, ptr %7, align 8
  br label %40

39:                                               ; preds = %22, %18
  store ptr null, ptr %7, align 8
  br label %40

40:                                               ; preds = %39, %30
  %41 = phi i32 [ 1, %30 ], [ 0, %39 ]
  %42 = icmp ne i32 %41, 0
  br i1 %42, label %44, label %43

43:                                               ; preds = %40
  call void @llvm.lifetime.end.p0(i64 16, ptr %8) #8
  br label %142

44:                                               ; preds = %40
  call void @llvm.lifetime.start.p0(i64 8, ptr %9) #8
  %45 = load ptr, ptr %7, align 8
  %46 = load ptr, ptr %45, align 8
  store ptr %46, ptr %9, align 8
  call void @llvm.lifetime.start.p0(i64 8, ptr %10) #8
  %47 = load i32, ptr %6, align 4
  %48 = load ptr, ptr %5, align 8
  %49 = getelementptr inbounds nuw %struct.TupleDescData, ptr %48, i32 0, i32 0
  %50 = load i32, ptr %49, align 8
  %51 = icmp sge i32 %47, %50
  br i1 %51, label %52, label %65

52:                                               ; preds = %44
  br label %53

53:                                               ; preds = %52
  br i1 true, label %54, label %56

54:                                               ; preds = %53
  %55 = call zeroext i1 @errstart_cold(i32 noundef 21, ptr noundef null) #9
  br i1 %55, label %58, label %62

56:                                               ; preds = %53
  %57 = call zeroext i1 @errstart(i32 noundef 21, ptr noundef null)
  br i1 %57, label %58, label %62

58:                                               ; preds = %56, %54
  %59 = call i32 @errcode(i32 noundef 67141764)
  %60 = call i32 (ptr, ...) @errmsg(ptr noundef @.str.35)
  %61 = call i32 (ptr, ...) @errdetail(ptr noundef @.str.36)
  call void @errfinish(ptr noundef @.str.1, i32 noundef 211, ptr noundef @__func__.ExecCheckPlanOutput)
  br label %62

62:                                               ; preds = %58, %56, %54
  unreachable

63:                                               ; No predecessors!
  br label %64

64:                                               ; preds = %63
  br label %65

65:                                               ; preds = %64, %44
  %66 = load ptr, ptr %5, align 8
  %67 = load i32, ptr %6, align 4
  %68 = call ptr @TupleDescAttr(ptr noundef %66, i32 noundef %67)
  store ptr %68, ptr %10, align 8
  %69 = load i32, ptr %6, align 4
  %70 = add i32 %69, 1
  store i32 %70, ptr %6, align 4
  %71 = load ptr, ptr %10, align 8
  %72 = getelementptr inbounds nuw %struct.FormData_pg_attribute, ptr %71, i32 0, i32 16
  %73 = load i8, ptr %72, align 1, !range !4, !noundef !5
  %74 = trunc i8 %73 to i1
  br i1 %74, label %108, label %75

75:                                               ; preds = %65
  %76 = load ptr, ptr %9, align 8
  %77 = getelementptr inbounds nuw %struct.TargetEntry, ptr %76, i32 0, i32 1
  %78 = load ptr, ptr %77, align 8
  %79 = call i32 @exprType(ptr noundef %78)
  %80 = load ptr, ptr %10, align 8
  %81 = getelementptr inbounds nuw %struct.FormData_pg_attribute, ptr %80, i32 0, i32 2
  %82 = load i32, ptr %81, align 4
  %83 = icmp ne i32 %79, %82
  br i1 %83, label %84, label %107

84:                                               ; preds = %75
  br label %85

85:                                               ; preds = %84
  br i1 true, label %86, label %88

86:                                               ; preds = %85
  %87 = call zeroext i1 @errstart_cold(i32 noundef 21, ptr noundef null) #9
  br i1 %87, label %90, label %104

88:                                               ; preds = %85
  %89 = call zeroext i1 @errstart(i32 noundef 21, ptr noundef null)
  br i1 %89, label %90, label %104

90:                                               ; preds = %88, %86
  %91 = call i32 @errcode(i32 noundef 67141764)
  %92 = call i32 (ptr, ...) @errmsg(ptr noundef @.str.35)
  %93 = load ptr, ptr %10, align 8
  %94 = getelementptr inbounds nuw %struct.FormData_pg_attribute, ptr %93, i32 0, i32 2
  %95 = load i32, ptr %94, align 4
  %96 = call ptr @format_type_be(i32 noundef %95)
  %97 = load i32, ptr %6, align 4
  %98 = load ptr, ptr %9, align 8
  %99 = getelementptr inbounds nuw %struct.TargetEntry, ptr %98, i32 0, i32 1
  %100 = load ptr, ptr %99, align 8
  %101 = call i32 @exprType(ptr noundef %100)
  %102 = call ptr @format_type_be(i32 noundef %101)
  %103 = call i32 (ptr, ...) @errdetail(ptr noundef @.str.37, ptr noundef %96, i32 noundef %97, ptr noundef %102)
  call void @errfinish(ptr noundef @.str.1, i32 noundef 225, ptr noundef @__func__.ExecCheckPlanOutput)
  br label %104

104:                                              ; preds = %90, %88, %86
  unreachable

105:                                              ; No predecessors!
  br label %106

106:                                              ; preds = %105
  br label %107

107:                                              ; preds = %106, %75
  br label %137

108:                                              ; preds = %65
  %109 = load ptr, ptr %9, align 8
  %110 = getelementptr inbounds nuw %struct.TargetEntry, ptr %109, i32 0, i32 1
  %111 = load ptr, ptr %110, align 8
  %112 = getelementptr inbounds nuw %struct.Node, ptr %111, i32 0, i32 0
  %113 = load i32, ptr %112, align 4
  %114 = icmp eq i32 %113, 7
  br i1 %114, label %115, label %122

115:                                              ; preds = %108
  %116 = load ptr, ptr %9, align 8
  %117 = getelementptr inbounds nuw %struct.TargetEntry, ptr %116, i32 0, i32 1
  %118 = load ptr, ptr %117, align 8
  %119 = getelementptr inbounds nuw %struct.Const, ptr %118, i32 0, i32 6
  %120 = load i8, ptr %119, align 8, !range !4, !noundef !5
  %121 = trunc i8 %120 to i1
  br i1 %121, label %136, label %122

122:                                              ; preds = %115, %108
  br label %123

123:                                              ; preds = %122
  br i1 true, label %124, label %126

124:                                              ; preds = %123
  %125 = call zeroext i1 @errstart_cold(i32 noundef 21, ptr noundef null) #9
  br i1 %125, label %128, label %133

126:                                              ; preds = %123
  %127 = call zeroext i1 @errstart(i32 noundef 21, ptr noundef null)
  br i1 %127, label %128, label %133

128:                                              ; preds = %126, %124
  %129 = call i32 @errcode(i32 noundef 67141764)
  %130 = call i32 (ptr, ...) @errmsg(ptr noundef @.str.35)
  %131 = load i32, ptr %6, align 4
  %132 = call i32 (ptr, ...) @errdetail(ptr noundef @.str.38, i32 noundef %131)
  call void @errfinish(ptr noundef @.str.1, i32 noundef 240, ptr noundef @__func__.ExecCheckPlanOutput)
  br label %133

133:                                              ; preds = %128, %126, %124
  unreachable

134:                                              ; No predecessors!
  br label %135

135:                                              ; preds = %134
  br label %136

136:                                              ; preds = %135, %115
  br label %137

137:                                              ; preds = %136, %107
  call void @llvm.lifetime.end.p0(i64 8, ptr %10) #8
  call void @llvm.lifetime.end.p0(i64 8, ptr %9) #8
  br label %138

138:                                              ; preds = %137
  %139 = getelementptr inbounds nuw %struct.ForEachState, ptr %8, i32 0, i32 1
  %140 = load i32, ptr %139, align 8
  %141 = add i32 %140, 1
  store i32 %141, ptr %139, align 8
  br label %18, !llvm.loop !28

142:                                              ; preds = %43
  %143 = load i32, ptr %6, align 4
  %144 = load ptr, ptr %5, align 8
  %145 = getelementptr inbounds nuw %struct.TupleDescData, ptr %144, i32 0, i32 0
  %146 = load i32, ptr %145, align 8
  %147 = icmp ne i32 %143, %146
  br i1 %147, label %148, label %161

148:                                              ; preds = %142
  br label %149

149:                                              ; preds = %148
  br i1 true, label %150, label %152

150:                                              ; preds = %149
  %151 = call zeroext i1 @errstart_cold(i32 noundef 21, ptr noundef null) #9
  br i1 %151, label %154, label %158

152:                                              ; preds = %149
  %153 = call zeroext i1 @errstart(i32 noundef 21, ptr noundef null)
  br i1 %153, label %154, label %158

154:                                              ; preds = %152, %150
  %155 = call i32 @errcode(i32 noundef 67141764)
  %156 = call i32 (ptr, ...) @errmsg(ptr noundef @.str.35)
  %157 = call i32 (ptr, ...) @errdetail(ptr noundef @.str.39)
  call void @errfinish(ptr noundef @.str.1, i32 noundef 247, ptr noundef @__func__.ExecCheckPlanOutput)
  br label %158

158:                                              ; preds = %154, %152, %150
  unreachable

159:                                              ; No predecessors!
  br label %160

160:                                              ; preds = %159
  br label %161

161:                                              ; preds = %160, %142
  call void @llvm.lifetime.end.p0(i64 8, ptr %7) #8
  call void @llvm.lifetime.end.p0(i64 4, ptr %6) #8
  call void @llvm.lifetime.end.p0(i64 8, ptr %5) #8
  ret void
}