; Function Attrs: nounwind uwtable
define internal fastcc void @ExecCheckPlanOutput(ptr readonly captures(none) %.64.val, ptr noundef readonly captures(address_is_null) %0) unnamed_addr #0 {
  %.not = icmp eq ptr %0, null
  %invariant.gep = getelementptr i8, ptr %.64.val, i64 24
  br i1 %.not, label %._crit_edge, label %.lr.ph

.lr.ph:                                           ; preds = %1
  %2 = getelementptr inbounds nuw i8, ptr %0, i64 4
  %3 = getelementptr inbounds nuw i8, ptr %0, i64 16
  %4 = load i32, ptr %2, align 4
  %5 = icmp sgt i32 %4, 0
  br i1 %5, label %.lr.ph25, label %._crit_edge

._crit_edge.loopexit:                             ; preds = %54
  %6 = trunc nuw nsw i64 %indvars.iv.next to i32
  br label %._crit_edge

._crit_edge:                                      ; preds = %._crit_edge.loopexit, %.lr.ph, %1
  %.0.lcssa = phi i32 [ 0, %1 ], [ 0, %.lr.ph ], [ %6, %._crit_edge.loopexit ]
  %7 = load i32, ptr %.64.val, align 8
  %.not25 = icmp eq i32 %.0.lcssa, %7
  br i1 %.not25, label %63, label %58

.lr.ph25:                                         ; preds = %.lr.ph, %54
  %8 = phi i32 [ %55, %54 ], [ %4, %.lr.ph ]
  %indvars.iv = phi i64 [ %indvars.iv.next, %54 ], [ 0, %.lr.ph ]
  %9 = load ptr, ptr %3, align 8
  %10 = getelementptr inbounds nuw %union.ListCell, ptr %9, i64 %indvars.iv
  %11 = load ptr, ptr %10, align 8
  %12 = load i32, ptr %.64.val, align 8
  %13 = sext i32 %12 to i64
  %.not26 = icmp slt i64 %indvars.iv, %13
  br i1 %.not26, label %18, label %.split

.split:                                           ; preds = %.lr.ph25
  %14 = tail call zeroext i1 @errstart_cold(i32 noundef 21, ptr noundef null) #10
  tail call void @llvm.assume(i1 %14)
  %15 = tail call i32 @errcode(i32 noundef 67141764) #9
  %16 = tail call i32 (ptr, ...) @errmsg(ptr noundef nonnull @.str.35) #9
  %17 = tail call i32 (ptr, ...) @errdetail(ptr noundef nonnull @.str.36) #9
  tail call void @errfinish(ptr noundef nonnull @.str.1, i32 noundef 211, ptr noundef nonnull @__func__.ExecCheckPlanOutput) #9
  unreachable

18:                                               ; preds = %.lr.ph25
  %19 = shl nsw i64 %13, 4
  %gep = getelementptr i8, ptr %invariant.gep, i64 %19
  %20 = getelementptr inbounds nuw %struct.FormData_pg_attribute, ptr %gep, i64 %indvars.iv
  %indvars.iv.next = add nuw nsw i64 %indvars.iv, 1
  %21 = getelementptr inbounds nuw i8, ptr %20, i64 91
  %22 = load i8, ptr %21, align 1, !range !4, !noundef !5
  %23 = trunc nuw i8 %22 to i1
  %24 = getelementptr inbounds nuw i8, ptr %11, i64 8
  %25 = load ptr, ptr %24, align 8
  br i1 %23, label %42, label %26

26:                                               ; preds = %18
  %27 = tail call i32 @exprType(ptr noundef %25) #9
  %28 = getelementptr inbounds nuw i8, ptr %20, i64 68
  %29 = load i32, ptr %28, align 4
  %.not27 = icmp eq i32 %27, %29
  br i1 %.not27, label %._crit_edge39, label %.split15

._crit_edge39:                                    ; preds = %26
  %.pre = load i32, ptr %2, align 4
  br label %54

.split15:                                         ; preds = %26
  %30 = getelementptr inbounds nuw i8, ptr %11, i64 8
  %31 = getelementptr inbounds nuw i8, ptr %20, i64 68
  %32 = trunc nuw nsw i64 %indvars.iv.next to i32
  %33 = tail call zeroext i1 @errstart_cold(i32 noundef 21, ptr noundef null) #10
  tail call void @llvm.assume(i1 %33)
  %34 = tail call i32 @errcode(i32 noundef 67141764) #9
  %35 = tail call i32 (ptr, ...) @errmsg(ptr noundef nonnull @.str.35) #9
  %36 = load i32, ptr %31, align 4
  %37 = tail call ptr @format_type_be(i32 noundef %36) #9
  %38 = load ptr, ptr %30, align 8
  %39 = tail call i32 @exprType(ptr noundef %38) #9
  %40 = tail call ptr @format_type_be(i32 noundef %39) #9
  %41 = tail call i32 (ptr, ...) @errdetail(ptr noundef nonnull @.str.37, ptr noundef %37, i32 noundef %32, ptr noundef %40) #9
  tail call void @errfinish(ptr noundef nonnull @.str.1, i32 noundef 225, ptr noundef nonnull @__func__.ExecCheckPlanOutput) #9
  unreachable

42:                                               ; preds = %18
  %43 = load i32, ptr %25, align 4
  %44 = icmp eq i32 %43, 7
  br i1 %44, label %45, label %.split20

45:                                               ; preds = %42
  %46 = getelementptr inbounds nuw i8, ptr %25, i64 32
  %47 = load i8, ptr %46, align 8, !range !4, !noundef !5
  %48 = trunc nuw i8 %47 to i1
  br i1 %48, label %54, label %.split20

.split20:                                         ; preds = %42, %45
  %49 = trunc nuw nsw i64 %indvars.iv.next to i32
  %50 = tail call zeroext i1 @errstart_cold(i32 noundef 21, ptr noundef null) #10
  tail call void @llvm.assume(i1 %50)
  %51 = tail call i32 @errcode(i32 noundef 67141764) #9
  %52 = tail call i32 (ptr, ...) @errmsg(ptr noundef nonnull @.str.35) #9
  %53 = tail call i32 (ptr, ...) @errdetail(ptr noundef nonnull @.str.38, i32 noundef %49) #9
  tail call void @errfinish(ptr noundef nonnull @.str.1, i32 noundef 240, ptr noundef nonnull @__func__.ExecCheckPlanOutput) #9
  unreachable

54:                                               ; preds = %._crit_edge39, %45
  %55 = phi i32 [ %.pre, %._crit_edge39 ], [ %8, %45 ]
  %56 = sext i32 %55 to i64
  %57 = icmp slt i64 %indvars.iv.next, %56
  br i1 %57, label %.lr.ph25, label %._crit_edge.loopexit

58:                                               ; preds = %._crit_edge
  %59 = tail call zeroext i1 @errstart_cold(i32 noundef 21, ptr noundef null) #10
  tail call void @llvm.assume(i1 %59)
  %60 = tail call i32 @errcode(i32 noundef 67141764) #9
  %61 = tail call i32 (ptr, ...) @errmsg(ptr noundef nonnull @.str.35) #9
  %62 = tail call i32 (ptr, ...) @errdetail(ptr noundef nonnull @.str.39) #9
  tail call void @errfinish(ptr noundef nonnull @.str.1, i32 noundef 247, ptr noundef nonnull @__func__.ExecCheckPlanOutput) #9
  unreachable

63:                                               ; preds = %._crit_edge
  ret void
}